; Function Attrs: mustprogress uwtable
define void @_ZN7rocksdb13TraceAnalyzer6HandleERKNS_28IteratorSeekQueryTraceRecordEPSt10unique_ptrINS_17TraceRecordResultESt14default_deleteIS5_EE(ptr noalias sret(%"class.rocksdb::Status") align 8 %agg.result, ptr noundef nonnull align 8 dereferenceable(1484) %this, ptr noundef nonnull align 8 dereferenceable(312) %record, ptr nocapture readnone %0) unnamed_addr #2 align 2 {
entry:
  %ref.tmp = alloca %"class.rocksdb::Slice", align 8
  %vtable = load ptr, ptr %record, align 8
  %vfn = getelementptr inbounds i8, ptr %vtable, i64 56
  %1 = load ptr, ptr %vfn, align 8
  %call = tail call noundef i32 %1(ptr noundef nonnull align 8 dereferenceable(312) %record)
  %cmp = icmp eq i32 %call, 5
  %. = select i1 %cmp, i64 1272, i64 1280
  %.5 = select i1 %cmp, i32 6, i32 7
  %total_seek_prevs_ = getelementptr inbounds i8, ptr %this, i64 %.
  %2 = load i64, ptr %total_seek_prevs_, align 8
  %inc2 = add i64 %2, 1
  store i64 %inc2, ptr %total_seek_prevs_, align 8
  %vtable3 = load ptr, ptr %record, align 8
  %vfn4 = getelementptr inbounds i8, ptr %vtable3, i64 24
  %3 = load ptr, ptr %vfn4, align 8
  %call5 = tail call noundef i64 %3(ptr noundef nonnull align 8 dereferenceable(16) %record)
  %vtable6 = load ptr, ptr %record, align 8
  %vfn7 = getelementptr inbounds i8, ptr %vtable6, i64 64
  %4 = load ptr, ptr %vfn7, align 8
  %call8 = tail call noundef i32 %4(ptr noundef nonnull align 8 dereferenceable(312) %record)
  %vtable9 = load ptr, ptr %record, align 8
  %vfn10 = getelementptr inbounds i8, ptr %vtable9, i64 72
  %5 = load ptr, ptr %vfn10, align 8
  %call11 = tail call { ptr, i64 } %5(ptr noundef nonnull align 8 dereferenceable(312) %record)
  %6 = extractvalue { ptr, i64 } %call11, 0
  store ptr %6, ptr %ref.tmp, align 8
  %7 = getelementptr inbounds i8, ptr %ref.tmp, i64 8
  %8 = extractvalue { ptr, i64 } %call11, 1
  store i64 %8, ptr %7, align 8
  call void @_ZN7rocksdb13TraceAnalyzer20OutputAnalysisResultENS_18TraceOperationTypeEmjRKNS_5SliceEm(ptr sret(%"class.rocksdb::Status") align 8 %agg.result, ptr noundef nonnull align 8 dereferenceable(1484) %this, i32 noundef %.5, i64 noundef %call5, i32 noundef %call8, ptr noundef nonnull align 8 dereferenceable(16) %ref.tmp, i64 noundef 0)
  ret void
}